(lp0
Vb3e89eea19b37fb571db40322e99c6d2
p1
aVeb6282f3a460c44be7577c0a7841de20
p2
aV7da10ad6fecba0286012906bff47a5f3
p3
aVbc0d0542ba5d41b81c5b14eeda7dd596
p4
aV9fa97d4174a72e8b8ffe54050842775b
p5
aVd08cfc61ddb41c762793264cee30810e
p6
aV9805b9b161cf254550d8915e63b986bd
p7
aV07fd3fc5faeef4ad4e52073b79c82e35
p8
aVa9f7110d97f1d0cd91e9726f175d90e3
p9
aVc26521dacbd6608dafd2ea0dd973e0a1
p10
aV042d4b6c8288d2796f5f02628164a712
p11
aV7b730bfb10a950b1cda43e256adff584
p12
aVae7549d89d74736e59b4ba7389823b5f
p13
aV6dc267867ec825c09de6fc6e40c89b96
p14
aVa49d48eee8279c9c9d29d08a6b694ab0
p15
aV07e4c3c80c610f8c562afe920c7282e4
p16
aV2a26251e724d8ffc3820bd7dae1efe5f
p17
aVcd600be69b2f95d79a6d1fbb0da53054
p18
aVa74d0826434b7faaebd020c34017f0a8
p19
aV12f490bf7350969a11577cf0b9cd05ab
p20
a.